Certificate:
    Data:
        Version: 3 (0x2)
        Serial Number:
            1d:40:ab:ce:3f:a9:45:3f:ab:a2:1f:c8:ac:d1:ee:2b
        Signature Algorithm: sha256WithRSAEncryption
        Issuer: C = US, ST = CA, L = San Jose, O = eBay, OU = 09ec9aa29e03b1742c48b6e796a7ef6e, CN = ca.ebay.goskope.com, emailAddress = certadmin@netskope.com
        Validity
            Not Before: Jan 17 18:13:57 2022 GMT
            Not After : Feb 16 18:13:57 2023 GMT
        Subject: CN = *.pypi.org
        Subject Public Key Info:
            Public Key Algorithm: rsaEncryption
                RSA Public-Key: (2048 bit)
                Modulus:
                    00:cf:c3:c9:bb:a3:e4:f6:4d:f8:f7:2a:b6:d3:55:
                    75:65:7d:ef:fa:87:c2:22:ca:ca:41:82:d5:fa:53:
                    ba:6e:01:e6:95:f6:1b:5e:51:d8:8f:cd:57:98:45:
                    8f:13:77:c0:51:2b:a7:a3:a4:92:ec:e8:07:c2:4c:
                    2e:09:e8:5c:c5:13:0b:fe:f7:28:cc:a9:20:2f:0a:
                    01:77:24:43:ab:3c:19:00:fc:90:4f:64:89:d1:5b:
                    47:d4:67:7a:d9:ab:1c:79:5f:0c:cf:cf:b0:07:25:
                    01:95:37:f8:e7:07:ff:c8:92:85:c8:eb:8d:91:8e:
                    d1:e4:2a:08:d4:6b:db:7a:c9:69:ab:da:f0:a3:71:
                    a0:ec:76:9c:24:a5:c6:6a:84:22:ef:f3:b5:af:0e:
                    13:33:11:f4:60:32:23:30:5e:57:6f:d1:e3:c9:39:
                    fc:53:35:00:76:3e:02:63:78:71:4d:7f:78:c9:a6:
                    18:0c:4d:72:0f:3d:e7:d5:e4:7f:e4:43:a3:a9:aa:
                    ba:cb:38:58:d6:58:59:7c:35:13:f0:f2:87:d3:b9:
                    d8:4d:3d:02:d6:21:b7:f2:b4:ad:ff:e9:85:ff:4a:
                    2c:8a:8b:17:b8:e2:42:58:75:7a:6c:b5:7b:d3:0a:
                    bf:63:c8:04:25:51:e8:66:3e:82:c6:fd:45:b6:19:
                    b6:25
                Exponent: 65537 (0x10001)
        X509v3 extensions:
            X509v3 Basic Constraints: 
                CA:FALSE
            X509v3 Subject Key Identifier: 
                E0:4D:52:47:A7:02:F5:77:90:C9:68:AD:2A:44:E4:E7:BC:0D:D5:B6
            X509v3 Subject Alternative Name: 
                DNS:*.pypi.org, DNS:pypi.org
            X509v3 Key Usage: critical
                Digital Signature, Key Encipherment
            X509v3 Extended Key Usage: 
                TLS Web Server Authentication, TLS Web Client Authentication
    Signature Algorithm: sha256WithRSAEncryption
         16:46:52:61:2c:b5:b3:7d:98:fa:2c:59:30:d8:8e:0c:8b:94:
         4a:74:07:2b:1e:2e:94:6b:f0:6b:35:5d:80:74:de:c9:11:f6:
         3f:07:67:a3:0b:e5:01:c3:26:fc:af:c3:77:7e:6a:41:e7:ae:
         b6:ce:31:ea:45:b0:a1:ea:9b:eb:40:21:bc:3e:93:3c:72:e3:
         13:61:cd:5d:a3:1c:96:22:ff:fe:8b:26:62:20:cf:9d:d0:27:
         4a:07:18:b0:3c:01:c5:48:6c:55:f4:d2:c4:7b:2b:ef:82:3a:
         c7:fc:aa:b8:07:d3:f4:84:4f:9c:f1:0a:4f:b7:2c:14:d4:76:
         0d:9c:5f:3c:a4:c2:71:23:f1:67:70:38:d7:63:9e:5f:82:04:
         fd:6c:f5:1d:45:d0:e1:d6:75:c7:a2:9a:66:b8:91:3b:77:c2:
         b2:3d:54:4a:b6:96:30:65:fc:3e:cd:f1:79:17:7b:cd:95:aa:
         22:3e:36:2d:b2:73:f0:f8:ee:dc:a0:c8:34:48:7b:4b:8c:4a:
         39:30:93:0a:09:4a:85:f7:45:af:2c:1a:5c:63:63:84:32:4b:
         31:0d:02:02:b4:bf:54:31:d5:ff:66:12:cc:b4:af:8f:1d:4a:
         8a:df:fa:9a:f6:cb:9e:eb:93:1c:b5:53:72:53:78:46:54:0b:
         be:8d:3d:b5
-----BEGIN CERTIFICATE-----
MIIDyDCCArCgAwIBAgIQHUCrzj+pRT+roh/IrNHuKzANBgkqhkiG9w0BAQsFADCB
rDELMAkGA1UEBhMCVVMxCzAJBgNVBAgTAkNBMREwDwYDVQQHEwhTYW4gSm9zZTEN
MAsGA1UEChMEZUJheTEpMCcGA1UECxMgMDllYzlhYTI5ZTAzYjE3NDJjNDhiNmU3
OTZhN2VmNmUxHDAaBgNVBAMTE2NhLmViYXkuZ29za29wZS5jb20xJTAjBgkqhkiG
9w0BCQEWFmNlcnRhZG1pbkBuZXRza29wZS5jb20wHhcNMjIwMTE3MTgxMzU3WhcN
MjMwMjE2MTgxMzU3WjAVMRMwEQYDVQQDDAoqLnB5cGkub3JnMIIBIjANBgkqhkiG
9w0BAQEFAAOCAQ8AMIIBCgKCAQEAz8PJu6Pk9k349yq201V1ZX3v+ofCIsrKQYLV
+lO6bgHmlfYbXlHYj81XmEWPE3fAUSuno6SS7OgHwkwuCehcxRML/vcozKkgLwoB
dyRDqzwZAPyQT2SJ0VtH1Gd62asceV8Mz8+wByUBlTf45wf/yJKFyOuNkY7R5CoI
1Gvbeslpq9rwo3Gg7HacJKXGaoQi7/O1rw4TMxH0YDIjMF5Xb9HjyTn8UzUAdj4C
Y3hxTX94yaYYDE1yDz3n1eR/5EOjqaq6yzhY1lhZfDUT8PKH07nYTT0C1iG38rSt
/+mF/0osiosXuOJCWHV6bLV70wq/Y8gEJVHoZj6Cxv1Fthm2JQIDAQABo3wwejAJ
BgNVHRMEAjAAMB0GA1UdDgQWBBTgTVJHpwL1d5DJaK0qROTnvA3VtjAfBgNVHREE
GDAWggoqLnB5cGkub3JngghweXBpLm9yZzAOBgNVHQ8BAf8EBAMCBaAwHQYDVR0l
BBYwFAYIKwYBBQUHAwEGCCsGAQUFBwMCMA0GCSqGSIb3DQEBCwUAA4IBAQAWRlJh
LLWzfZj6LFkw2I4Mi5RKdAcrHi6Ua/BrNV2AdN7JEfY/B2ejC+UBwyb8r8N3fmpB
5662zjHqRbCh6pvrQCG8PpM8cuMTYc1doxyWIv/+iyZiIM+d0CdKBxiwPAHFSGxV
9NLEeyvvgjrH/Kq4B9P0hE+c8QpPtywU1HYNnF88pMJxI/FncDjXY55fggT9bPUd
RdDh1nXHoppmuJE7d8KyPVRKtpYwZfw+zfF5F3vNlaoiPjYtsnPw+O7coMg0SHtL
jEo5MJMKCUqF90WvLBpcY2OEMksxDQICtL9UMdX/ZhLMtK+PHUqK3/qa9sue65Mc
tVNyU3hGVAu+jT21
-----END CERTIFICATE-----
